target datalayout = "e-m:e-p270:32:32-p271:32:32-p272:64:64-i64:64-i128:128-f80:128-n8:16:32:64-S128"
target triple = "x86_64-pc-linux-gnu"

%struct.H5FD_t = type { i64, ptr, i64, i32, i64, i64, i64, i64, i64, i8 }
%struct.H5FD_class_t = type { i32, i32, ptr, i64, i32, ptr, ptr, ptr, ptr, i64, ptr, ptr, ptr, i64, ptr, ptr, ptr, ptr, ptr, ptr, ptr, ptr, ptr, ptr, ptr, ptr, ptr, ptr, ptr, ptr, ptr, ptr, ptr, ptr, ptr, ptr, ptr, ptr, ptr, [7 x i32] }

@.str.1 = private unnamed_addr constant [103 x i8] c"generated/home/dtcxzyw/WorkSpace/Projects/compilers/llvm-opt-benchmark/bench/hdf5/hdf5/src/H5FDspace.c\00", align 1
@H5E_VFL_g = external global i64, align 8
@H5E_NOSPACE_g = external global i64, align 8
@H5E_CANTMARKDIRTY_g = external global i64, align 8
@.str.5 = private unnamed_addr constant [33 x i8] c"unable to mark EOA info as dirty\00", align 1
@__func__.H5FD_try_extend = private unnamed_addr constant [16 x i8] c"H5FD_try_extend\00", align 1
@H5E_CANTGET_g = external global i64, align 8
@.str.11 = private unnamed_addr constant [30 x i8] c"driver get_eoa request failed\00", align 1
@H5E_CANTEXTEND_g = external global i64, align 8
@.str.12 = private unnamed_addr constant [29 x i8] c"driver extend request failed\00", align 1
@__func__.H5FD__extend = private unnamed_addr constant [13 x i8] c"H5FD__extend\00", align 1
@.str.13 = private unnamed_addr constant [31 x i8] c"file allocation request failed\00", align 1

; Function Attrs: nounwind uwtable
define internal i64 @H5FD__extend(ptr noundef %0, i32 noundef %1, i64 noundef %2) #0 {
  %4 = alloca ptr, align 8
  %5 = alloca i32, align 4
  %6 = alloca i64, align 8
  %7 = alloca i64, align 8
  %8 = alloca i64, align 8
  %9 = alloca i8, align 1
  store ptr %0, ptr %4, align 8
  store i32 %1, ptr %5, align 4
  store i64 %2, ptr %6, align 8
  store i64 -1, ptr %8, align 8
  store i8 0, ptr %9, align 1
  %10 = load ptr, ptr %4, align 8
  %11 = getelementptr inbounds %struct.H5FD_t, ptr %10, i32 0, i32 1
  %12 = load ptr, ptr %11, align 8
  %13 = getelementptr inbounds %struct.H5FD_class_t, ptr %12, i32 0, i32 23
  %14 = load ptr, ptr %13, align 8
  %15 = load ptr, ptr %4, align 8
  %16 = load i32, ptr %5, align 4
  %17 = call i64 %14(ptr noundef %15, i32 noundef %16)
  store i64 %17, ptr %7, align 8
  %18 = load i64, ptr %7, align 8
  %19 = icmp eq i64 -1, %18
  br i1 %19, label %39, label %20

20:                                               ; preds = %3
  %21 = load i64, ptr %7, align 8
  %22 = load i64, ptr %6, align 8
  %23 = add i64 %21, %22
  %24 = icmp eq i64 -1, %23
  br i1 %24, label %39, label %25

25:                                               ; preds = %20
  %26 = load i64, ptr %7, align 8
  %27 = load i64, ptr %6, align 8
  %28 = add i64 %26, %27
  %29 = load i64, ptr %7, align 8
  %30 = icmp ult i64 %28, %29
  br i1 %30, label %39, label %31

31:                                               ; preds = %25
  %32 = load i64, ptr %7, align 8
  %33 = load i64, ptr %6, align 8
  %34 = add i64 %32, %33
  %35 = load ptr, ptr %4, align 8
  %36 = getelementptr inbounds %struct.H5FD_t, ptr %35, i32 0, i32 5
  %37 = load i64, ptr %36, align 8
  %38 = icmp ugt i64 %34, %37
  br i1 %38, label %39, label %54

39:                                               ; preds = %31, %25, %20, %3
  br label %40

40:                                               ; preds = %39
  br label %41

41:                                               ; preds = %40
  br label %42

42:                                               ; preds = %41
  %43 = load i64, ptr @H5E_VFL_g, align 8
  %44 = load i64, ptr @H5E_NOSPACE_g, align 8
  %45 = call i32 (ptr, ptr, i32, i64, i64, ptr, ...) @H5E_printf_stack(ptr noundef @.str.1, ptr noundef @__func__.H5FD__extend, i32 noundef 104, i64 noundef %43, i64 noundef %44, ptr noundef @.str.13)
  br label %46

46:                                               ; preds = %42
  store i8 1, ptr %9, align 1
  %47 = load i8, ptr %9, align 1
  %48 = trunc i8 %47 to i1
  %49 = zext i1 %48 to i8
  store i8 %49, ptr %9, align 1
  br label %50

50:                                               ; preds = %46
  br label %51

51:                                               ; preds = %50
  store i64 -1, ptr %8, align 8
  br label %85

52:                                               ; No predecessors!
  br label %53

53:                                               ; preds = %52
  br label %54

54:                                               ; preds = %53, %31
  %55 = load i64, ptr %7, align 8
  store i64 %55, ptr %8, align 8
  %56 = load i64, ptr %6, align 8
  %57 = load i64, ptr %7, align 8
  %58 = add i64 %57, %56
  store i64 %58, ptr %7, align 8
  %59 = load ptr, ptr %4, align 8
  %60 = getelementptr inbounds %struct.H5FD_t, ptr %59, i32 0, i32 1
  %61 = load ptr, ptr %60, align 8
  %62 = getelementptr inbounds %struct.H5FD_class_t, ptr %61, i32 0, i32 24
  %63 = load ptr, ptr %62, align 8
  %64 = load ptr, ptr %4, align 8
  %65 = load i32, ptr %5, align 4
  %66 = load i64, ptr %7, align 8
  %67 = call i32 %63(ptr noundef %64, i32 noundef %65, i64 noundef %66)
  %68 = icmp slt i32 %67, 0
  br i1 %68, label %69, label %84

69:                                               ; preds = %54
  br label %70

70:                                               ; preds = %69
  br label %71

71:                                               ; preds = %70
  br label %72

72:                                               ; preds = %71
  %73 = load i64, ptr @H5E_VFL_g, align 8
  %74 = load i64, ptr @H5E_NOSPACE_g, align 8
  %75 = call i32 (ptr, ptr, i32, i64, i64, ptr, ...) @H5E_printf_stack(ptr noundef @.str.1, ptr noundef @__func__.H5FD__extend, i32 noundef 112, i64 noundef %73, i64 noundef %74, ptr noundef @.str.13)
  br label %76

76:                                               ; preds = %72
  store i8 1, ptr %9, align 1
  %77 = load i8, ptr %9, align 1
  %78 = trunc i8 %77 to i1
  %79 = zext i1 %78 to i8
  store i8 %79, ptr %9, align 1
  br label %80

80:                                               ; preds = %76
  br label %81

81:                                               ; preds = %80
  store i64 -1, ptr %8, align 8
  br label %85

82:                                               ; No predecessors!
  br label %83

83:                                               ; preds = %82
  br label %84

84:                                               ; preds = %83, %54
  br label %85

85:                                               ; preds = %84, %81, %51
  %86 = load i64, ptr %8, align 8
  ret i64 %86
}

; Function Attrs: nounwind uwtable
define i32 @H5FD_try_extend(ptr noundef %0, i32 noundef %1, ptr noundef %2, i64 noundef %3, i64 noundef %4) #0 {
  %6 = alloca ptr, align 8
  %7 = alloca i32, align 4
  %8 = alloca ptr, align 8
  %9 = alloca i64, align 8
  %10 = alloca i64, align 8
  %11 = alloca i64, align 8
  %12 = alloca i32, align 4
  %13 = alloca i8, align 1
  store ptr %0, ptr %6, align 8
  store i32 %1, ptr %7, align 4
  store ptr %2, ptr %8, align 8
  store i64 %3, ptr %9, align 8
  store i64 %4, ptr %10, align 8
  store i32 0, ptr %12, align 4
  store i8 0, ptr %13, align 1
  %14 = load ptr, ptr %6, align 8
  %15 = getelementptr inbounds %struct.H5FD_t, ptr %14, i32 0, i32 1
  %16 = load ptr, ptr %15, align 8
  %17 = getelementptr inbounds %struct.H5FD_class_t, ptr %16, i32 0, i32 23
  %18 = load ptr, ptr %17, align 8
  %19 = load ptr, ptr %6, align 8
  %20 = load i32, ptr %7, align 4
  %21 = call i64 %18(ptr noundef %19, i32 noundef %20)
  store i64 %21, ptr %11, align 8
  %22 = icmp eq i64 -1, %21
  br i1 %22, label %23, label %38

23:                                               ; preds = %5
  br label %24

24:                                               ; preds = %23
  br label %25

25:                                               ; preds = %24
  br label %26

26:                                               ; preds = %25
  %27 = load i64, ptr @H5E_VFL_g, align 8
  %28 = load i64, ptr @H5E_CANTGET_g, align 8
  %29 = call i32 (ptr, ptr, i32, i64, i64, ptr, ...) @H5E_printf_stack(ptr noundef @.str.1, ptr noundef @__func__.H5FD_try_extend, i32 noundef 400, i64 noundef %27, i64 noundef %28, ptr noundef @.str.11)
  br label %30

30:                                               ; preds = %26
  store i8 1, ptr %13, align 1
  %31 = load i8, ptr %13, align 1
  %32 = trunc i8 %31 to i1
  %33 = zext i1 %32 to i8
  store i8 %33, ptr %13, align 1
  br label %34

34:                                               ; preds = %30
  br label %35

35:                                               ; preds = %34
  store i32 -1, ptr %12, align 4
  br label %94

36:                                               ; No predecessors!
  br label %37

37:                                               ; preds = %36
  br label %38

38:                                               ; preds = %37, %5
  %39 = load ptr, ptr %6, align 8
  %40 = getelementptr inbounds %struct.H5FD_t, ptr %39, i32 0, i32 6
  %41 = load i64, ptr %40, align 8
  %42 = load i64, ptr %9, align 8
  %43 = add i64 %42, %41
  store i64 %43, ptr %9, align 8
  %44 = load i64, ptr %9, align 8
  %45 = icmp ne i64 %44, -1
  br i1 %45, label %46, label %93

46:                                               ; preds = %38
  %47 = load i64, ptr %9, align 8
  %48 = load i64, ptr %11, align 8
  %49 = icmp eq i64 %47, %48
  br i1 %49, label %50, label %93

50:                                               ; preds = %46
  %51 = load ptr, ptr %6, align 8
  %52 = load i32, ptr %7, align 4
  %53 = load i64, ptr %10, align 8
  %54 = call i64 @H5FD__extend(ptr noundef %51, i32 noundef %52, i64 noundef %53)
  %55 = icmp eq i64 -1, %54
  br i1 %55, label %56, label %71

56:                                               ; preds = %50
  br label %57

57:                                               ; preds = %56
  br label %58

58:                                               ; preds = %57
  br label %59

59:                                               ; preds = %58
  %60 = load i64, ptr @H5E_VFL_g, align 8
  %61 = load i64, ptr @H5E_CANTEXTEND_g, align 8
  %62 = call i32 (ptr, ptr, i32, i64, i64, ptr, ...) @H5E_printf_stack(ptr noundef @.str.1, ptr noundef @__func__.H5FD_try_extend, i32 noundef 409, i64 noundef %60, i64 noundef %61, ptr noundef @.str.12)
  br label %63

63:                                               ; preds = %59
  store i8 1, ptr %13, align 1
  %64 = load i8, ptr %13, align 1
  %65 = trunc i8 %64 to i1
  %66 = zext i1 %65 to i8
  store i8 %66, ptr %13, align 1
  br label %67

67:                                               ; preds = %63
  br label %68

68:                                               ; preds = %67
  store i32 -1, ptr %12, align 4
  br label %94

69:                                               ; No predecessors!
  br label %70

70:                                               ; preds = %69
  br label %71

71:                                               ; preds = %70, %50
  %72 = load ptr, ptr %8, align 8
  %73 = call i32 @H5F_eoa_dirty(ptr noundef %72)
  %74 = icmp slt i32 %73, 0
  br i1 %74, label %75, label %90

75:                                               ; preds = %71
  br label %76

76:                                               ; preds = %75
  br label %77

77:                                               ; preds = %76
  br label %78

78:                                               ; preds = %77
  %79 = load i64, ptr @H5E_VFL_g, align 8
  %80 = load i64, ptr @H5E_CANTMARKDIRTY_g, align 8
  %81 = call i32 (ptr, ptr, i32, i64, i64, ptr, ...) @H5E_printf_stack(ptr noundef @.str.1, ptr noundef @__func__.H5FD_try_extend, i32 noundef 413, i64 noundef %79, i64 noundef %80, ptr noundef @.str.5)
  br label %82

82:                                               ; preds = %78
  store i8 1, ptr %13, align 1
  %83 = load i8, ptr %13, align 1
  %84 = trunc i8 %83 to i1
  %85 = zext i1 %84 to i8
  store i8 %85, ptr %13, align 1
  br label %86

86:                                               ; preds = %82
  br label %87

87:                                               ; preds = %86
  store i32 -1, ptr %12, align 4
  br label %94

88:                                               ; No predecessors!
  br label %89

89:                                               ; preds = %88
  br label %90

90:                                               ; preds = %89, %71
  br label %91

91:                                               ; preds = %90
  store i32 1, ptr %12, align 4
  br label %94

92:                                               ; No predecessors!
  br label %93

93:                                               ; preds = %92, %46, %38
  br label %94

94:                                               ; preds = %93, %91, %87, %68, %35
  %95 = load i32, ptr %12, align 4
  ret i32 %95
}