; Function Attrs: nounwind uwtable
define range(i32 -1, 2) i32 @H5FD_try_extend(ptr noundef %0, i32 noundef %1, ptr noundef %2, i64 noundef %3, i64 noundef %4) local_unnamed_addr #0 {
  %6 = getelementptr inbounds nuw i8, ptr %0, i64 8
  %7 = load ptr, ptr %6, align 8
  %8 = getelementptr inbounds nuw i8, ptr %7, i64 176
  %9 = load ptr, ptr %8, align 8
  %10 = tail call i64 %9(ptr noundef %0, i32 noundef %1) #2
  %11 = icmp eq i64 %10, -1
  br i1 %11, label %12, label %16

12:                                               ; preds = %5
  %13 = load i64, ptr @H5E_VFL_g, align 8
  %14 = load i64, ptr @H5E_CANTGET_g, align 8
  %15 = tail call i32 (ptr, ptr, i32, i64, i64, ptr, ...) @H5E_printf_stack(ptr noundef nonnull @.str.1, ptr noundef nonnull @__func__.H5FD_try_extend, i32 noundef 400, i64 noundef %13, i64 noundef %14, ptr noundef nonnull @.str.11) #2
  br label %54

16:                                               ; preds = %5
  %17 = getelementptr inbounds nuw i8, ptr %0, i64 48
  %18 = load i64, ptr %17, align 8
  %19 = add i64 %18, %3
  %20 = icmp eq i64 %19, %10
  br i1 %20, label %21, label %54

21:                                               ; preds = %16
  %22 = load ptr, ptr %6, align 8
  %23 = getelementptr inbounds nuw i8, ptr %22, i64 176
  %24 = load ptr, ptr %23, align 8
  %25 = tail call i64 %24(ptr noundef nonnull %0, i32 noundef %1) #2
  %26 = icmp eq i64 %25, -1
  br i1 %26, label %41, label %27

27:                                               ; preds = %21
  %28 = add i64 %25, %4
  %29 = icmp eq i64 %28, -1
  %30 = icmp ult i64 %28, %25
  %or.cond.i = or i1 %29, %30
  br i1 %or.cond.i, label %41, label %31

31:                                               ; preds = %27
  %32 = getelementptr inbounds nuw i8, ptr %0, i64 40
  %33 = load i64, ptr %32, align 8
  %34 = icmp ugt i64 %28, %33
  br i1 %34, label %41, label %35

35:                                               ; preds = %31
  %36 = load ptr, ptr %6, align 8
  %37 = getelementptr inbounds nuw i8, ptr %36, i64 184
  %38 = load ptr, ptr %37, align 8
  %39 = tail call i32 %38(ptr noundef nonnull %0, i32 noundef %1, i64 noundef %28) #2
  %40 = icmp slt i32 %39, 0
  br i1 %40, label %41, label %H5FD__extend.exit

41:                                               ; preds = %21, %27, %31, %35
  %.sink.i = phi i32 [ 104, %21 ], [ 104, %27 ], [ 104, %31 ], [ 112, %35 ]
  %42 = load i64, ptr @H5E_VFL_g, align 8
  %43 = load i64, ptr @H5E_NOSPACE_g, align 8
  %44 = tail call i32 (ptr, ptr, i32, i64, i64, ptr, ...) @H5E_printf_stack(ptr noundef nonnull @.str.1, ptr noundef nonnull @__func__.H5FD__extend, i32 noundef %.sink.i, i64 noundef %42, i64 noundef %43, ptr noundef nonnull @.str.13) #2
  %45 = load i64, ptr @H5E_VFL_g, align 8
  %46 = load i64, ptr @H5E_CANTEXTEND_g, align 8
  %47 = tail call i32 (ptr, ptr, i32, i64, i64, ptr, ...) @H5E_printf_stack(ptr noundef nonnull @.str.1, ptr noundef nonnull @__func__.H5FD_try_extend, i32 noundef 409, i64 noundef %45, i64 noundef %46, ptr noundef nonnull @.str.12) #2
  br label %54

H5FD__extend.exit:                                ; preds = %35
  %48 = tail call i32 @H5F_eoa_dirty(ptr noundef %2) #2
  %49 = icmp slt i32 %48, 0
  br i1 %49, label %50, label %54

50:                                               ; preds = %H5FD__extend.exit
  %51 = load i64, ptr @H5E_VFL_g, align 8
  %52 = load i64, ptr @H5E_CANTMARKDIRTY_g, align 8
  %53 = tail call i32 (ptr, ptr, i32, i64, i64, ptr, ...) @H5E_printf_stack(ptr noundef nonnull @.str.1, ptr noundef nonnull @__func__.H5FD_try_extend, i32 noundef 413, i64 noundef %51, i64 noundef %52, ptr noundef nonnull @.str.5) #2
  br label %54

54:                                               ; preds = %H5FD__extend.exit, %16, %50, %41, %12
  %.0 = phi i32 [ -1, %12 ], [ -1, %41 ], [ -1, %50 ], [ 0, %16 ], [ 1, %H5FD__extend.exit ]
  ret i32 %.0
}